; Function Attrs: mustprogress nofree norecurse nosync nounwind willreturn memory(argmem: write) uwtable
define hidden void @_ZN21ThreadLocalAllocStats5resetEv(ptr nocapture noundef nonnull writeonly align 8 dereferenceable(64) %0) local_unnamed_addr #7 align 2 {
  store i32 0, ptr %0, align 8
  %2 = getelementptr inbounds i8, ptr %0, i64 4
  store i32 0, ptr %2, align 4
  %3 = getelementptr inbounds i8, ptr %0, i64 8
  store i32 0, ptr %3, align 8
  %4 = getelementptr inbounds i8, ptr %0, i64 16
  tail call void @llvm.memset.p0.i64(ptr noundef nonnull align 8 dereferenceable(48) %4, i8 0, i64 48, i1 false)
  ret void
}